; ModuleID = 'source-C-CXX/11/578.c'
source_filename = "source-C-CXX/11/578.c"
target datalayout = "e-m:e-p270:32:32-p271:32:32-p272:64:64-i64:64-f80:128-n8:16:32:64-S128"
target triple = "x86_64-pc-linux-gnu"

@.str = private unnamed_addr constant [3 x i8] c"%d\00", align 1
@.str.1 = private unnamed_addr constant [4 x i8] c"%d\0A\00", align 1

; Function Attrs: nofree nounwind sspstrong uwtable
define dso_local i32 @main() local_unnamed_addr #0 {
  %1 = alloca [16 x i32], align 16
  %2 = bitcast [16 x i32]* %1 to i8*
  call void @llvm.lifetime.start.p0i8(i64 64, i8* nonnull %2) #4
  %3 = getelementptr inbounds [16 x i32], [16 x i32]* %1, i64 0, i64 0
  %4 = call i32 (i8*, ...) @__isoc99_scanf(i8* getelementptr inbounds ([3 x i8], [3 x i8]* @.str, i64 0, i64 0), i32* nonnull %3)
  %5 = load i32, i32* %3, align 16, !tbaa !5
  %6 = icmp eq i32 %5, -1
  br i1 %6, label %97, label %7

7:                                                ; preds = %0
  %8 = getelementptr inbounds [16 x i32], [16 x i32]* %1, i64 0, i64 1
  %9 = getelementptr inbounds [16 x i32], [16 x i32]* %1, i64 0, i64 2
  %10 = getelementptr inbounds [16 x i32], [16 x i32]* %1, i64 0, i64 3
  %11 = getelementptr inbounds [16 x i32], [16 x i32]* %1, i64 0, i64 4
  %12 = getelementptr inbounds [16 x i32], [16 x i32]* %1, i64 0, i64 5
  %13 = getelementptr inbounds [16 x i32], [16 x i32]* %1, i64 0, i64 6
  %14 = getelementptr inbounds [16 x i32], [16 x i32]* %1, i64 0, i64 7
  %15 = getelementptr inbounds [16 x i32], [16 x i32]* %1, i64 0, i64 8
  %16 = getelementptr inbounds [16 x i32], [16 x i32]* %1, i64 0, i64 9
  %17 = getelementptr inbounds [16 x i32], [16 x i32]* %1, i64 0, i64 10
  %18 = getelementptr inbounds [16 x i32], [16 x i32]* %1, i64 0, i64 11
  %19 = getelementptr inbounds [16 x i32], [16 x i32]* %1, i64 0, i64 12
  %20 = getelementptr inbounds [16 x i32], [16 x i32]* %1, i64 0, i64 13
  %21 = getelementptr inbounds [16 x i32], [16 x i32]* %1, i64 0, i64 14
  %22 = getelementptr inbounds [16 x i32], [16 x i32]* %1, i64 0, i64 15
  %23 = bitcast [16 x i32]* %1 to <4 x i32>*
  %24 = getelementptr inbounds [16 x i32], [16 x i32]* %1, i64 0, i64 4
  %25 = bitcast i32* %24 to <4 x i32>*
  %26 = getelementptr inbounds [16 x i32], [16 x i32]* %1, i64 0, i64 8
  %27 = bitcast i32* %26 to <4 x i32>*
  %28 = getelementptr inbounds [16 x i32], [16 x i32]* %1, i64 0, i64 12
  %29 = bitcast i32* %28 to <4 x i32>*
  %30 = getelementptr inbounds [16 x i32], [16 x i32]* %1, i64 0, i64 16
  %31 = bitcast i32* %30 to <4 x i32>*
  %32 = getelementptr inbounds [16 x i32], [16 x i32]* %1, i64 0, i64 20
  %33 = bitcast i32* %32 to <4 x i32>*
  br label %34

34:                                               ; preds = %7, %92
  %35 = call i32 (i8*, ...) @__isoc99_scanf(i8* getelementptr inbounds ([3 x i8], [3 x i8]* @.str, i64 0, i64 0), i32* nonnull %8)
  %36 = load i32, i32* %8, align 4, !tbaa !5
  %37 = icmp eq i32 %36, 0
  br i1 %37, label %42, label %38

38:                                               ; preds = %34
  %39 = call i32 (i8*, ...) @__isoc99_scanf(i8* getelementptr inbounds ([3 x i8], [3 x i8]* @.str, i64 0, i64 0), i32* nonnull %9)
  %40 = load i32, i32* %9, align 8, !tbaa !5
  %41 = icmp eq i32 %40, 0
  br i1 %41, label %42, label %98

42:                                               ; preds = %146, %142, %138, %134, %130, %126, %122, %118, %114, %110, %106, %102, %98, %38, %34
  %43 = phi i64 [ 1, %34 ], [ 2, %38 ], [ 3, %98 ], [ 4, %102 ], [ 5, %106 ], [ 6, %110 ], [ 7, %114 ], [ 8, %118 ], [ 9, %122 ], [ 10, %126 ], [ 11, %130 ], [ 12, %134 ], [ 13, %138 ], [ 14, %142 ], [ %150, %146 ]
  %44 = icmp ult i64 %43, 8
  %45 = and i64 %43, 24
  %46 = load <4 x i32>, <4 x i32>* %23, align 16
  %47 = load <4 x i32>, <4 x i32>* %25, align 16
  %48 = icmp eq i64 %45, 8
  %49 = load <4 x i32>, <4 x i32>* %27, align 16
  %50 = load <4 x i32>, <4 x i32>* %29, align 16
  %51 = icmp eq i64 %45, 16
  %52 = icmp eq i64 %43, %45
  br label %53

53:                                               ; preds = %42, %88
  %54 = phi i64 [ 0, %42 ], [ %90, %88 ]
  %55 = phi i32 [ 0, %42 ], [ %89, %88 ]
  %56 = getelementptr inbounds [16 x i32], [16 x i32]* %1, i64 0, i64 %54
  %57 = load i32, i32* %56, align 4, !tbaa !5
  %58 = shl nsw i32 %57, 1
  br i1 %44, label %75, label %59

59:                                               ; preds = %53
  %60 = insertelement <4 x i32> poison, i32 %58, i32 0
  %61 = shufflevector <4 x i32> %60, <4 x i32> poison, <4 x i32> zeroinitializer
  %62 = insertelement <4 x i32> poison, i32 %58, i32 0
  %63 = shufflevector <4 x i32> %62, <4 x i32> poison, <4 x i32> zeroinitializer
  %64 = insertelement <4 x i32> <i32 poison, i32 0, i32 0, i32 0>, i32 %55, i32 0
  %65 = icmp eq <4 x i32> %46, %61
  %66 = icmp eq <4 x i32> %47, %63
  %67 = zext <4 x i1> %65 to <4 x i32>
  %68 = zext <4 x i1> %66 to <4 x i32>
  %69 = add <4 x i32> %64, %67
  br i1 %48, label %70, label %151, !llvm.loop !9

70:                                               ; preds = %158, %151, %59
  %71 = phi <4 x i32> [ %69, %59 ], [ %156, %151 ], [ %165, %158 ]
  %72 = phi <4 x i32> [ %68, %59 ], [ %157, %151 ], [ %166, %158 ]
  %73 = add <4 x i32> %72, %71
  %74 = call i32 @llvm.vector.reduce.add.v4i32(<4 x i32> %73)
  br i1 %52, label %88, label %75

75:                                               ; preds = %53, %70
  %76 = phi i64 [ 0, %53 ], [ %45, %70 ]
  %77 = phi i32 [ %55, %53 ], [ %74, %70 ]
  br label %78

78:                                               ; preds = %75, %78
  %79 = phi i64 [ %86, %78 ], [ %76, %75 ]
  %80 = phi i32 [ %85, %78 ], [ %77, %75 ]
  %81 = getelementptr inbounds [16 x i32], [16 x i32]* %1, i64 0, i64 %79
  %82 = load i32, i32* %81, align 4, !tbaa !5
  %83 = icmp eq i32 %82, %58
  %84 = zext i1 %83 to i32
  %85 = add nsw i32 %80, %84
  %86 = add nuw nsw i64 %79, 1
  %87 = icmp eq i64 %86, %43
  br i1 %87, label %88, label %78, !llvm.loop !12

88:                                               ; preds = %78, %70
  %89 = phi i32 [ %74, %70 ], [ %85, %78 ]
  %90 = add nuw nsw i64 %54, 1
  %91 = icmp eq i64 %90, %43
  br i1 %91, label %92, label %53, !llvm.loop !14

92:                                               ; preds = %88
  %93 = call i32 (i8*, ...) @printf(i8* nonnull dereferenceable(1) getelementptr inbounds ([4 x i8], [4 x i8]* @.str.1, i64 0, i64 0), i32 %89)
  %94 = call i32 (i8*, ...) @__isoc99_scanf(i8* getelementptr inbounds ([3 x i8], [3 x i8]* @.str, i64 0, i64 0), i32* nonnull %3)
  %95 = load i32, i32* %3, align 16, !tbaa !5
  %96 = icmp eq i32 %95, -1
  br i1 %96, label %97, label %34

97:                                               ; preds = %92, %0
  call void @llvm.lifetime.end.p0i8(i64 64, i8* nonnull %2) #4
  ret i32 0

98:                                               ; preds = %38
  %99 = call i32 (i8*, ...) @__isoc99_scanf(i8* getelementptr inbounds ([3 x i8], [3 x i8]* @.str, i64 0, i64 0), i32* nonnull %10)
  %100 = load i32, i32* %10, align 4, !tbaa !5
  %101 = icmp eq i32 %100, 0
  br i1 %101, label %42, label %102

102:                                              ; preds = %98
  %103 = call i32 (i8*, ...) @__isoc99_scanf(i8* getelementptr inbounds ([3 x i8], [3 x i8]* @.str, i64 0, i64 0), i32* nonnull %11)
  %104 = load i32, i32* %11, align 16, !tbaa !5
  %105 = icmp eq i32 %104, 0
  br i1 %105, label %42, label %106

106:                                              ; preds = %102
  %107 = call i32 (i8*, ...) @__isoc99_scanf(i8* getelementptr inbounds ([3 x i8], [3 x i8]* @.str, i64 0, i64 0), i32* nonnull %12)
  %108 = load i32, i32* %12, align 4, !tbaa !5
  %109 = icmp eq i32 %108, 0
  br i1 %109, label %42, label %110

110:                                              ; preds = %106
  %111 = call i32 (i8*, ...) @__isoc99_scanf(i8* getelementptr inbounds ([3 x i8], [3 x i8]* @.str, i64 0, i64 0), i32* nonnull %13)
  %112 = load i32, i32* %13, align 8, !tbaa !5
  %113 = icmp eq i32 %112, 0
  br i1 %113, label %42, label %114

114:                                              ; preds = %110
  %115 = call i32 (i8*, ...) @__isoc99_scanf(i8* getelementptr inbounds ([3 x i8], [3 x i8]* @.str, i64 0, i64 0), i32* nonnull %14)
  %116 = load i32, i32* %14, align 4, !tbaa !5
  %117 = icmp eq i32 %116, 0
  br i1 %117, label %42, label %118

118:                                              ; preds = %114
  %119 = call i32 (i8*, ...) @__isoc99_scanf(i8* getelementptr inbounds ([3 x i8], [3 x i8]* @.str, i64 0, i64 0), i32* nonnull %15)
  %120 = load i32, i32* %15, align 16, !tbaa !5
  %121 = icmp eq i32 %120, 0
  br i1 %121, label %42, label %122

122:                                              ; preds = %118
  %123 = call i32 (i8*, ...) @__isoc99_scanf(i8* getelementptr inbounds ([3 x i8], [3 x i8]* @.str, i64 0, i64 0), i32* nonnull %16)
  %124 = load i32, i32* %16, align 4, !tbaa !5
  %125 = icmp eq i32 %124, 0
  br i1 %125, label %42, label %126

126:                                              ; preds = %122
  %127 = call i32 (i8*, ...) @__isoc99_scanf(i8* getelementptr inbounds ([3 x i8], [3 x i8]* @.str, i64 0, i64 0), i32* nonnull %17)
  %128 = load i32, i32* %17, align 8, !tbaa !5
  %129 = icmp eq i32 %128, 0
  br i1 %129, label %42, label %130

130:                                              ; preds = %126
  %131 = call i32 (i8*, ...) @__isoc99_scanf(i8* getelementptr inbounds ([3 x i8], [3 x i8]* @.str, i64 0, i64 0), i32* nonnull %18)
  %132 = load i32, i32* %18, align 4, !tbaa !5
  %133 = icmp eq i32 %132, 0
  br i1 %133, label %42, label %134

134:                                              ; preds = %130
  %135 = call i32 (i8*, ...) @__isoc99_scanf(i8* getelementptr inbounds ([3 x i8], [3 x i8]* @.str, i64 0, i64 0), i32* nonnull %19)
  %136 = load i32, i32* %19, align 16, !tbaa !5
  %137 = icmp eq i32 %136, 0
  br i1 %137, label %42, label %138

138:                                              ; preds = %134
  %139 = call i32 (i8*, ...) @__isoc99_scanf(i8* getelementptr inbounds ([3 x i8], [3 x i8]* @.str, i64 0, i64 0), i32* nonnull %20)
  %140 = load i32, i32* %20, align 4, !tbaa !5
  %141 = icmp eq i32 %140, 0
  br i1 %141, label %42, label %142

142:                                              ; preds = %138
  %143 = call i32 (i8*, ...) @__isoc99_scanf(i8* getelementptr inbounds ([3 x i8], [3 x i8]* @.str, i64 0, i64 0), i32* nonnull %21)
  %144 = load i32, i32* %21, align 8, !tbaa !5
  %145 = icmp eq i32 %144, 0
  br i1 %145, label %42, label %146

146:                                              ; preds = %142
  %147 = call i32 (i8*, ...) @__isoc99_scanf(i8* getelementptr inbounds ([3 x i8], [3 x i8]* @.str, i64 0, i64 0), i32* nonnull %22)
  %148 = load i32, i32* %22, align 4, !tbaa !5
  %149 = icmp eq i32 %148, 0
  %150 = select i1 %149, i64 15, i64 16
  br label %42

151:                                              ; preds = %59
  %152 = icmp eq <4 x i32> %49, %61
  %153 = icmp eq <4 x i32> %50, %63
  %154 = zext <4 x i1> %152 to <4 x i32>
  %155 = zext <4 x i1> %153 to <4 x i32>
  %156 = add <4 x i32> %69, %154
  %157 = add nuw nsw <4 x i32> %68, %155
  br i1 %51, label %70, label %158, !llvm.loop !9

158:                                              ; preds = %151
  %159 = load <4 x i32>, <4 x i32>* %31, align 16, !tbaa !5
  %160 = load <4 x i32>, <4 x i32>* %33, align 16, !tbaa !5
  %161 = icmp eq <4 x i32> %159, %61
  %162 = icmp eq <4 x i32> %160, %63
  %163 = zext <4 x i1> %161 to <4 x i32>
  %164 = zext <4 x i1> %162 to <4 x i32>
  %165 = add <4 x i32> %156, %163
  %166 = add nuw nsw <4 x i32> %157, %164
  br label %70
}

; Function Attrs: argmemonly mustprogress nofree nosync nounwind willreturn
declare void @llvm.lifetime.start.p0i8(i64 immarg, i8* nocapture) #1

; Function Attrs: nofree nounwind
declare noundef i32 @__isoc99_scanf(i8* nocapture noundef readonly, ...) local_unnamed_addr #2

; Function Attrs: nofree nounwind
declare noundef i32 @printf(i8* nocapture noundef readonly, ...) local_unnamed_addr #2

; Function Attrs: argmemonly mustprogress nofree nosync nounwind willreturn
declare void @llvm.lifetime.end.p0i8(i64 immarg, i8* nocapture) #1

; Function Attrs: nofree nosync nounwind readnone willreturn
declare i32 @llvm.vector.reduce.add.v4i32(<4 x i32>) #3


!llvm.module.flags = !{!0, !1, !2, !3}
!llvm.ident = !{!4}

!0 = !{i32 1, !"wchar_size", i32 4}
!1 = !{i32 7, !"PIC Level", i32 2}
!2 = !{i32 7, !"PIE Level", i32 2}
!3 = !{i32 7, !"uwtable", i32 1}
!4 = !{!"clang version 13.0.0"}
!5 = !{!6, !6, i64 0}
!6 = !{!"int", !7, i64 0}
!7 = !{!"omnipotent char", !8, i64 0}
!8 = !{!"Simple C/C++ TBAA"}
!9 = distinct !{!9, !10, !11}
!10 = !{!"llvm.loop.mustprogress"}
!11 = !{!"llvm.loop.isvectorized", i32 1}
!12 = distinct !{!12, !10, !13, !11}
!13 = !{!"llvm.loop.unroll.runtime.disable"}
!14 = distinct !{!14, !10}
